; Function Attrs: nounwind uwtable
define range(i32 0, 2) i32 @Prs_ManReadSignalList(ptr noundef %0, ptr noundef captures(none) initializes((4, 8)) %1, i8 noundef signext %2, i32 noundef %3) local_unnamed_addr #0 {
  %5 = getelementptr inbounds nuw i8, ptr %1, i64 4
  store i32 0, ptr %5, align 4
  %6 = tail call fastcc i32 @Prs_ManReadSignal(ptr noundef %0)
  %7 = icmp eq i32 %6, 0
  br i1 %7, label %._crit_edge, label %.lr.ph

.lr.ph:                                           ; preds = %4
  %.not = icmp eq i32 %3, 0
  %.phi.trans.insert.i = getelementptr inbounds nuw i8, ptr %1, i64 8
  %8 = getelementptr i8, ptr %0, i64 24
  br label %10

._crit_edge:                                      ; preds = %73, %4
  %9 = getelementptr inbounds nuw i8, ptr %0, i64 216
  tail call void @llvm.memcpy.p0.p0.i64(ptr noundef nonnull align 1 dereferenceable(32) %9, ptr noundef nonnull align 1 dereferenceable(32) @.str, i64 32, i1 false)
  br label %.loopexit

10:                                               ; preds = %.lr.ph, %73
  %11 = phi i32 [ %6, %.lr.ph ], [ %75, %73 ]
  br i1 %.not, label %41, label %12

12:                                               ; preds = %10
  %13 = load i32, ptr %5, align 4
  %14 = load i32, ptr %1, align 8
  %15 = icmp eq i32 %13, %14
  br i1 %15, label %16, label %.Vec_IntGrow.exit10_crit_edge.i

.Vec_IntGrow.exit10_crit_edge.i:                  ; preds = %12
  %.pre.i = load ptr, ptr %.phi.trans.insert.i, align 8
  br label %Vec_IntPush.exit

16:                                               ; preds = %12
  %17 = icmp slt i32 %13, 16
  br i1 %17, label %18, label %25

18:                                               ; preds = %16
  %19 = load ptr, ptr %.phi.trans.insert.i, align 8
  %.not9.i.i = icmp eq ptr %19, null
  br i1 %.not9.i.i, label %22, label %20

20:                                               ; preds = %18
  %21 = tail call dereferenceable_or_null(64) ptr @realloc(ptr noundef nonnull %19, i64 noundef 64) #29
  br label %Vec_IntGrow.exit.i

22:                                               ; preds = %18
  %23 = tail call noalias dereferenceable_or_null(64) ptr @malloc(i64 noundef 64) #30
  br label %Vec_IntGrow.exit.i

Vec_IntGrow.exit.i:                               ; preds = %22, %20
  %24 = phi ptr [ %21, %20 ], [ %23, %22 ]
  store ptr %24, ptr %.phi.trans.insert.i, align 8
  store i32 16, ptr %1, align 8
  br label %Vec_IntPush.exit

25:                                               ; preds = %16
  %26 = shl nuw nsw i32 %13, 1
  %27 = load ptr, ptr %.phi.trans.insert.i, align 8
  %.not9.i9.i = icmp eq ptr %27, null
  %28 = zext nneg i32 %26 to i64
  %29 = shl nuw nsw i64 %28, 2
  br i1 %.not9.i9.i, label %32, label %30

30:                                               ; preds = %25
  %31 = tail call ptr @realloc(ptr noundef nonnull %27, i64 noundef %29) #29
  br label %34

32:                                               ; preds = %25
  %33 = tail call noalias ptr @malloc(i64 noundef %29) #30
  br label %34

34:                                               ; preds = %32, %30
  %35 = phi ptr [ %31, %30 ], [ %33, %32 ]
  store ptr %35, ptr %.phi.trans.insert.i, align 8
  store i32 %26, ptr %1, align 8
  br label %Vec_IntPush.exit

Vec_IntPush.exit:                                 ; preds = %.Vec_IntGrow.exit10_crit_edge.i, %Vec_IntGrow.exit.i, %34
  %36 = phi ptr [ %.pre.i, %.Vec_IntGrow.exit10_crit_edge.i ], [ %35, %34 ], [ %24, %Vec_IntGrow.exit.i ]
  %37 = load i32, ptr %5, align 4
  %38 = add nsw i32 %37, 1
  store i32 %38, ptr %5, align 4
  %39 = sext i32 %37 to i64
  %40 = getelementptr inbounds i32, ptr %36, i64 %39
  store i32 0, ptr %40, align 4
  br label %41

41:                                               ; preds = %Vec_IntPush.exit, %10
  %42 = load i32, ptr %5, align 4
  %43 = load i32, ptr %1, align 8
  %44 = icmp eq i32 %42, %43
  br i1 %44, label %45, label %.Vec_IntGrow.exit10_crit_edge.i17

.Vec_IntGrow.exit10_crit_edge.i17:                ; preds = %41
  %.pre.i19 = load ptr, ptr %.phi.trans.insert.i, align 8
  br label %Vec_IntPush.exit23

45:                                               ; preds = %41
  %46 = icmp slt i32 %42, 16
  br i1 %46, label %47, label %54

47:                                               ; preds = %45
  %48 = load ptr, ptr %.phi.trans.insert.i, align 8
  %.not9.i.i21 = icmp eq ptr %48, null
  br i1 %.not9.i.i21, label %51, label %49

49:                                               ; preds = %47
  %50 = tail call dereferenceable_or_null(64) ptr @realloc(ptr noundef nonnull %48, i64 noundef 64) #29
  br label %Vec_IntGrow.exit.i22

51:                                               ; preds = %47
  %52 = tail call noalias dereferenceable_or_null(64) ptr @malloc(i64 noundef 64) #30
  br label %Vec_IntGrow.exit.i22

Vec_IntGrow.exit.i22:                             ; preds = %51, %49
  %53 = phi ptr [ %50, %49 ], [ %52, %51 ]
  store ptr %53, ptr %.phi.trans.insert.i, align 8
  store i32 16, ptr %1, align 8
  br label %Vec_IntPush.exit23

54:                                               ; preds = %45
  %55 = shl nuw nsw i32 %42, 1
  %56 = load ptr, ptr %.phi.trans.insert.i, align 8
  %.not9.i9.i20 = icmp eq ptr %56, null
  %57 = zext nneg i32 %55 to i64
  %58 = shl nuw nsw i64 %57, 2
  br i1 %.not9.i9.i20, label %61, label %59

59:                                               ; preds = %54
  %60 = tail call ptr @realloc(ptr noundef nonnull %56, i64 noundef %58) #29
  br label %63

61:                                               ; preds = %54
  %62 = tail call noalias ptr @malloc(i64 noundef %58) #30
  br label %63

63:                                               ; preds = %61, %59
  %64 = phi ptr [ %60, %59 ], [ %62, %61 ]
  store ptr %64, ptr %.phi.trans.insert.i, align 8
  store i32 %55, ptr %1, align 8
  br label %Vec_IntPush.exit23

Vec_IntPush.exit23:                               ; preds = %.Vec_IntGrow.exit10_crit_edge.i17, %Vec_IntGrow.exit.i22, %63
  %65 = phi ptr [ %.pre.i19, %.Vec_IntGrow.exit10_crit_edge.i17 ], [ %64, %63 ], [ %53, %Vec_IntGrow.exit.i22 ]
  %66 = load i32, ptr %5, align 4
  %67 = add nsw i32 %66, 1
  store i32 %67, ptr %5, align 4
  %68 = sext i32 %66 to i64
  %69 = getelementptr inbounds i32, ptr %65, i64 %68
  store i32 %11, ptr %69, align 4
  %.val = load ptr, ptr %8, align 8
  %.val.val = load i8, ptr %.val, align 1
  %.not25 = icmp eq i8 %.val.val, %2
  br i1 %.not25, label %.loopexit, label %70

70:                                               ; preds = %Vec_IntPush.exit23
  %.not26 = icmp eq i8 %.val.val, 44
  br i1 %.not26, label %73, label %71

71:                                               ; preds = %70
  %72 = getelementptr inbounds nuw i8, ptr %0, i64 216
  tail call void @llvm.memcpy.p0.p0.i64(ptr noundef nonnull align 1 dereferenceable(29) %72, ptr noundef nonnull align 1 dereferenceable(29) @.str.1, i64 29, i1 false)
  br label %.loopexit

73:                                               ; preds = %70
  %74 = getelementptr inbounds nuw i8, ptr %.val, i64 1
  store ptr %74, ptr %8, align 8
  %75 = tail call fastcc i32 @Prs_ManReadSignal(ptr noundef nonnull %0)
  %76 = icmp eq i32 %75, 0
  br i1 %76, label %._crit_edge, label %10

.loopexit:                                        ; preds = %Vec_IntPush.exit23, %71, %._crit_edge
  %.0 = phi i32 [ 0, %._crit_edge ], [ 0, %71 ], [ 1, %Vec_IntPush.exit23 ]
  ret i32 %.0
}